; ModuleID = '16/135.c'
source_filename = "16/135.c"
target datalayout = "e-m:e-p270:32:32-p271:32:32-p272:64:64-i64:64-f80:128-n8:16:32:64-S128"
target triple = "x86_64-pc-linux-gnu"

@.str = private unnamed_addr constant [4 x i8] c"%d \00", align 1
@.str.1 = private unnamed_addr constant [3 x i8] c"%d\00", align 1

; Function Attrs: noinline nounwind uwtable
define dso_local i32 @main() #0 {
  %1 = alloca i32, align 4
  %2 = alloca i32, align 4
  %3 = alloca i32, align 4
  %4 = alloca i32, align 4
  %5 = alloca i32, align 4
  %6 = alloca i32, align 4
  %7 = alloca i32, align 4
  %8 = alloca i32, align 4
  store i32 0, i32* %1, align 4
  %9 = call i32 (i8*, ...) @__isoc99_scanf(i8* getelementptr inbounds ([4 x i8], [4 x i8]* @.str, i64 0, i64 0), i32* %2)
  %10 = load i32, i32* %2, align 4
  %11 = icmp sge i32 %10, 10
  br i1 %11, label %12, label %28

12:                                               ; preds = %0
  %13 = load i32, i32* %2, align 4
  %14 = icmp slt i32 %13, 100
  br i1 %14, label %15, label %28

15:                                               ; preds = %12
  %16 = load i32, i32* %2, align 4
  %17 = sdiv i32 %16, 1000
  store i32 %17, i32* %3, align 4
  %18 = load i32, i32* %2, align 4
  %19 = srem i32 %18, 10
  store i32 %19, i32* %4, align 4
  %20 = load i32, i32* %4, align 4
  %21 = mul nsw i32 10, %20
  %22 = load i32, i32* %3, align 4
  %23 = add nsw i32 %21, %22
  store i32 %23, i32* %8, align 4
  %24 = load i32, i32* %4, align 4
  %25 = call i32 (i8*, ...) @printf(i8* getelementptr inbounds ([3 x i8], [3 x i8]* @.str.1, i64 0, i64 0), i32 %24)
  %26 = load i32, i32* %3, align 4
  %27 = call i32 (i8*, ...) @printf(i8* getelementptr inbounds ([3 x i8], [3 x i8]* @.str.1, i64 0, i64 0), i32 %26)
  br label %28

28:                                               ; preds = %15, %12, %0
  %29 = load i32, i32* %2, align 4
  %30 = icmp sgt i32 %29, 0
  br i1 %30, label %31, label %38

31:                                               ; preds = %28
  %32 = load i32, i32* %2, align 4
  %33 = icmp slt i32 %32, 10
  br i1 %33, label %34, label %38

34:                                               ; preds = %31
  %35 = load i32, i32* %2, align 4
  store i32 %35, i32* %8, align 4
  %36 = load i32, i32* %2, align 4
  %37 = call i32 (i8*, ...) @printf(i8* getelementptr inbounds ([3 x i8], [3 x i8]* @.str.1, i64 0, i64 0), i32 %36)
  br label %38

38:                                               ; preds = %34, %31, %28
  %39 = load i32, i32* %2, align 4
  %40 = icmp sge i32 %39, 100
  br i1 %40, label %41, label %65

41:                                               ; preds = %38
  %42 = load i32, i32* %2, align 4
  %43 = icmp slt i32 %42, 1000
  br i1 %43, label %44, label %65

44:                                               ; preds = %41
  %45 = load i32, i32* %2, align 4
  %46 = sdiv i32 %45, 100
  store i32 %46, i32* %3, align 4
  %47 = load i32, i32* %2, align 4
  %48 = sdiv i32 %47, 10
  %49 = srem i32 %48, 10
  store i32 %49, i32* %4, align 4
  %50 = load i32, i32* %2, align 4
  %51 = srem i32 %50, 10
  store i32 %51, i32* %5, align 4
  %52 = load i32, i32* %5, align 4
  %53 = mul nsw i32 100, %52
  %54 = load i32, i32* %4, align 4
  %55 = mul nsw i32 10, %54
  %56 = add nsw i32 %53, %55
  %57 = load i32, i32* %3, align 4
  %58 = add nsw i32 %56, %57
  store i32 %58, i32* %8, align 4
  %59 = load i32, i32* %5, align 4
  %60 = call i32 (i8*, ...) @printf(i8* getelementptr inbounds ([3 x i8], [3 x i8]* @.str.1, i64 0, i64 0), i32 %59)
  %61 = load i32, i32* %4, align 4
  %62 = call i32 (i8*, ...) @printf(i8* getelementptr inbounds ([3 x i8], [3 x i8]* @.str.1, i64 0, i64 0), i32 %61)
  %63 = load i32, i32* %3, align 4
  %64 = call i32 (i8*, ...) @printf(i8* getelementptr inbounds ([3 x i8], [3 x i8]* @.str.1, i64 0, i64 0), i32 %63)
  br label %65

65:                                               ; preds = %44, %41, %38
  %66 = load i32, i32* %2, align 4
  %67 = icmp sge i32 %66, 1000
  br i1 %67, label %68, label %90

68:                                               ; preds = %65
  %69 = load i32, i32* %2, align 4
  %70 = icmp slt i32 %69, 10000
  br i1 %70, label %71, label %90

71:                                               ; preds = %68
  %72 = load i32, i32* %2, align 4
  %73 = sdiv i32 %72, 1000
  store i32 %73, i32* %3, align 4
  %74 = load i32, i32* %2, align 4
  %75 = sdiv i32 %74, 100
  %76 = srem i32 %75, 10
  store i32 %76, i32* %4, align 4
  %77 = load i32, i32* %2, align 4
  %78 = sdiv i32 %77, 10
  %79 = srem i32 %78, 10
  store i32 %79, i32* %5, align 4
  %80 = load i32, i32* %2, align 4
  %81 = srem i32 %80, 10
  store i32 %81, i32* %6, align 4
  %82 = load i32, i32* %6, align 4
  %83 = call i32 (i8*, ...) @printf(i8* getelementptr inbounds ([3 x i8], [3 x i8]* @.str.1, i64 0, i64 0), i32 %82)
  %84 = load i32, i32* %5, align 4
  %85 = call i32 (i8*, ...) @printf(i8* getelementptr inbounds ([3 x i8], [3 x i8]* @.str.1, i64 0, i64 0), i32 %84)
  %86 = load i32, i32* %4, align 4
  %87 = call i32 (i8*, ...) @printf(i8* getelementptr inbounds ([3 x i8], [3 x i8]* @.str.1, i64 0, i64 0), i32 %86)
  %88 = load i32, i32* %3, align 4
  %89 = call i32 (i8*, ...) @printf(i8* getelementptr inbounds ([3 x i8], [3 x i8]* @.str.1, i64 0, i64 0), i32 %88)
  br label %90

90:                                               ; preds = %71, %68, %65
  ret i32 0
}

declare dso_local i32 @__isoc99_scanf(i8*, ...) #1

declare dso_local i32 @printf(i8*, ...) #1


!llvm.module.flags = !{!0}
!llvm.ident = !{!1}

!0 = !{i32 1, !"wchar_size", i32 4}
!1 = !{!"clang version 10.0.0-4ubuntu1 "}
